target datalayout = "e-m:e-p270:32:32-p271:32:32-p272:64:64-i64:64-i128:128-f80:128-n8:16:32:64-S128"
target triple = "x86_64-pc-linux-gnu"

%struct.RString = type { %struct.RBasic, i64, %union.anon.1 }
%struct.RBasic = type { i64, i64 }
%union.anon.1 = type { %struct.anon.2 }
%struct.anon.2 = type { ptr, %union.anon.3 }
%union.anon.3 = type { i64 }
%struct.anon.4 = type { [1 x i8] }

; Function Attrs: inlinehint nounwind sspstrong willreturn memory(read) uwtable
define internal i64 @RB_FL_TEST_RAW(i64 noundef %0, i64 noundef %1) #11 {
  %3 = alloca i64, align 8
  %4 = alloca i64, align 8
  store i64 %0, ptr %3, align 8, !tbaa !12
  store i64 %1, ptr %4, align 8, !tbaa !12
  %5 = load i64, ptr %3, align 8, !tbaa !12
  %6 = inttoptr i64 %5 to ptr
  %7 = getelementptr inbounds nuw %struct.RBasic, ptr %6, i32 0, i32 0
  %8 = load i64, ptr %7, align 8, !tbaa !212
  %9 = load i64, ptr %4, align 8, !tbaa !12
  %10 = and i64 %8, %9
  ret i64 %10
}

; Function Attrs: inlinehint nounwind sspstrong willreturn memory(read) uwtable
define internal zeroext i1 @RB_FL_ANY_RAW(i64 noundef %0, i64 noundef %1) #11 {
  %3 = alloca i64, align 8
  %4 = alloca i64, align 8
  store i64 %0, ptr %3, align 8, !tbaa !12
  store i64 %1, ptr %4, align 8, !tbaa !12
  %5 = load i64, ptr %3, align 8, !tbaa !12
  %6 = load i64, ptr %4, align 8, !tbaa !12
  %7 = call i64 @RB_FL_TEST_RAW(i64 noundef %5, i64 noundef %6) #29
  %8 = icmp ne i64 %7, 0
  ret i1 %8
}

; Function Attrs: inlinehint nounwind sspstrong willreturn memory(read, argmem: readwrite) uwtable
define internal void @rbimpl_rstring_getmem(ptr dead_on_unwind noalias writable sret(%struct.RString) align 8 %0, i64 noundef %1) #22 {
  %3 = alloca i64, align 8
  store i64 %1, ptr %3, align 8, !tbaa !12
  %4 = load i64, ptr %3, align 8, !tbaa !12
  %5 = call zeroext i1 @RB_FL_ANY_RAW(i64 noundef %4, i64 noundef 8192) #29
  br i1 %5, label %6, label %9

6:                                                ; preds = %2
  %7 = load i64, ptr %3, align 8, !tbaa !12
  %8 = inttoptr i64 %7 to ptr
  call void @llvm.memcpy.p0.p0.i64(ptr align 8 %0, ptr align 8 %8, i64 40, i1 false), !tbaa.struct !211
  br label %20

9:                                                ; preds = %2
  %10 = load i64, ptr %3, align 8, !tbaa !12
  %11 = call i64 @RSTRING_LEN(i64 noundef %10) #29
  %12 = getelementptr inbounds nuw %struct.RString, ptr %0, i32 0, i32 1
  store i64 %11, ptr %12, align 8, !tbaa !108
  %13 = load i64, ptr %3, align 8, !tbaa !12
  %14 = inttoptr i64 %13 to ptr
  %15 = getelementptr inbounds nuw %struct.RString, ptr %14, i32 0, i32 2
  %16 = getelementptr inbounds nuw %struct.anon.4, ptr %15, i32 0, i32 0
  %17 = getelementptr inbounds [1 x i8], ptr %16, i64 0, i64 0
  %18 = getelementptr inbounds nuw %struct.RString, ptr %0, i32 0, i32 2
  %19 = getelementptr inbounds nuw %struct.anon.2, ptr %18, i32 0, i32 0
  store ptr %17, ptr %19, align 8, !tbaa !41
  br label %20

20:                                               ; preds = %9, %6
  ret void
}

; Function Attrs: inlinehint nounwind sspstrong uwtable
define internal ptr @RSTRING_PTR(i64 noundef %0) #7 {
  %2 = alloca i64, align 8
  %3 = alloca ptr, align 8
  %4 = alloca %struct.RString, align 8
  store i64 %0, ptr %2, align 8, !tbaa !12
  call void @llvm.lifetime.start.p0(i64 8, ptr %3) #25
  %5 = load i64, ptr %2, align 8, !tbaa !12
  call void @rbimpl_rstring_getmem(ptr dead_on_unwind writable sret(%struct.RString) align 8 %4, i64 noundef %5) #32
  %6 = getelementptr inbounds nuw %struct.RString, ptr %4, i32 0, i32 2
  %7 = getelementptr inbounds nuw %struct.anon.2, ptr %6, i32 0, i32 0
  %8 = load ptr, ptr %7, align 8, !tbaa !41
  store ptr %8, ptr %3, align 8, !tbaa !21
  %9 = load ptr, ptr %3, align 8, !tbaa !21
  call void @llvm.lifetime.end.p0(i64 8, ptr %3) #25
  ret ptr %9
}

; Function Attrs: nounwind sspstrong uwtable
define dso_local i64 @rb_econv_substr_append(ptr noundef %0, i64 noundef %1, i64 noundef %2, i64 noundef %3, i64 noundef %4, i32 noundef %5) #0 {
  %7 = alloca ptr, align 8
  %8 = alloca i64, align 8
  %9 = alloca i64, align 8
  %10 = alloca i64, align 8
  %11 = alloca i64, align 8
  %12 = alloca i32, align 4
  %13 = alloca ptr, align 8
  %14 = alloca ptr, align 8
  store ptr %0, ptr %7, align 8, !tbaa !30
  store i64 %1, ptr %8, align 8, !tbaa !12
  store i64 %2, ptr %9, align 8, !tbaa !12
  store i64 %3, ptr %10, align 8, !tbaa !12
  store i64 %4, ptr %11, align 8, !tbaa !12
  store i32 %5, ptr %12, align 4, !tbaa !29
  %15 = load i64, ptr %8, align 8, !tbaa !12
  %16 = call i64 @rb_str_new_frozen(i64 noundef %15)
  store i64 %16, ptr %8, align 8, !tbaa !12
  %17 = load ptr, ptr %7, align 8, !tbaa !30
  %18 = load i64, ptr %8, align 8, !tbaa !12
  %19 = call ptr @RSTRING_PTR(i64 noundef %18)
  %20 = load i64, ptr %9, align 8, !tbaa !12
  %21 = getelementptr i8, ptr %19, i64 %20
  %22 = load i64, ptr %10, align 8, !tbaa !12
  %23 = load i64, ptr %11, align 8, !tbaa !12
  %24 = load i32, ptr %12, align 4, !tbaa !29
  %25 = call i64 @rb_econv_append(ptr noundef %17, ptr noundef %21, i64 noundef %22, i64 noundef %23, i32 noundef %24)
  store i64 %25, ptr %11, align 8, !tbaa !12
  call void @llvm.lifetime.start.p0(i64 8, ptr %13) #25
  store ptr %8, ptr %13, align 8, !tbaa !80
  call void asm sideeffect "", "*m,~{dirflag},~{fpsr},~{flags}"(ptr elementtype(ptr) %13) #25, !srcloc !111
  %26 = load ptr, ptr %13, align 8, !tbaa !80
  store ptr %26, ptr %14, align 8, !tbaa !80
  call void @llvm.lifetime.end.p0(i64 8, ptr %13) #25
  %27 = load ptr, ptr %14, align 8, !tbaa !80
  %28 = load volatile i64, ptr %27, align 8, !tbaa !12
  %29 = load i64, ptr %11, align 8, !tbaa !12
  ret i64 %29
}

; Function Attrs: inlinehint nounwind sspstrong willreturn memory(read) uwtable
define internal i64 @RSTRING_LEN(i64 noundef %0) #11 {
  %2 = alloca i64, align 8
  store i64 %0, ptr %2, align 8, !tbaa !12
  %3 = load i64, ptr %2, align 8, !tbaa !12
  %4 = inttoptr i64 %3 to ptr
  %5 = getelementptr inbounds nuw %struct.RString, ptr %4, i32 0, i32 1
  %6 = load i64, ptr %5, align 8, !tbaa !108
  ret i64 %6
}

; Function Attrs: nounwind sspstrong uwtable
define dso_local i64 @rb_econv_str_append(ptr noundef %0, i64 noundef %1, i64 noundef %2, i32 noundef %3) #0 {
  %5 = alloca ptr, align 8
  %6 = alloca i64, align 8
  %7 = alloca i64, align 8
  %8 = alloca i32, align 4
  store ptr %0, ptr %5, align 8, !tbaa !30
  store i64 %1, ptr %6, align 8, !tbaa !12
  store i64 %2, ptr %7, align 8, !tbaa !12
  store i32 %3, ptr %8, align 4, !tbaa !29
  %9 = load ptr, ptr %5, align 8, !tbaa !30
  %10 = load i64, ptr %6, align 8, !tbaa !12
  %11 = load i64, ptr %6, align 8, !tbaa !12
  %12 = call i64 @RSTRING_LEN(i64 noundef %11) #29
  %13 = load i64, ptr %7, align 8, !tbaa !12
  %14 = load i32, ptr %8, align 4, !tbaa !29
  %15 = call i64 @rb_econv_substr_append(ptr noundef %9, i64 noundef %10, i64 noundef 0, i64 noundef %12, i64 noundef %13, i32 noundef %14)
  ret i64 %15
}