; Function Attrs: nounwind sspstrong uwtable
define dso_local i64 @rb_econv_str_append(ptr noundef %0, i64 noundef %1, i64 noundef %2, i32 noundef %3) local_unnamed_addr #0 {
  %5 = alloca i64, align 8
  %6 = alloca ptr, align 8
  %7 = inttoptr i64 %1 to ptr
  %8 = getelementptr inbounds nuw i8, ptr %7, i64 16
  %9 = load i64, ptr %8, align 8, !tbaa !114
  call void @llvm.lifetime.start.p0(i64 8, ptr nonnull %5)
  %10 = tail call i64 @rb_str_new_frozen(i64 noundef %1) #22
  store i64 %10, ptr %5, align 8, !tbaa !22
  %11 = inttoptr i64 %10 to ptr
  %12 = load i64, ptr %11, align 8, !tbaa !33, !noalias !125
  %13 = and i64 %12, 8192
  %.not.i.i.i = icmp eq i64 %13, 0
  %14 = getelementptr inbounds nuw i8, ptr %11, i64 24
  br i1 %.not.i.i.i, label %rb_econv_substr_append.exit, label %15

15:                                               ; preds = %4
  %.sroa.2.0.copyload.i.i = load ptr, ptr %14, align 8
  br label %rb_econv_substr_append.exit

rb_econv_substr_append.exit:                      ; preds = %4, %15
  %.sroa.2.0.i.i = phi ptr [ %.sroa.2.0.copyload.i.i, %15 ], [ %14, %4 ]
  %16 = tail call i64 @rb_econv_append(ptr noundef %0, ptr noundef %.sroa.2.0.i.i, i64 noundef %9, i64 noundef %2, i32 noundef %3)
  call void @llvm.lifetime.start.p0(i64 8, ptr nonnull %6) #22
  store ptr %5, ptr %6, align 8, !tbaa !123
  call void asm sideeffect "", "*m,~{dirflag},~{fpsr},~{flags}"(ptr nonnull elementtype(ptr) %6) #22, !srcloc !124
  %17 = load ptr, ptr %6, align 8, !tbaa !123
  call void @llvm.lifetime.end.p0(i64 8, ptr nonnull %6) #22
  %18 = load volatile i64, ptr %17, align 8, !tbaa !22
  call void @llvm.lifetime.end.p0(i64 8, ptr nonnull %5)
  ret i64 %16
}